; Function Attrs: mustprogress uwtable
define hidden void @mbedtls_cipher_free(ptr noundef %0) local_unnamed_addr #8 {
  %2 = icmp eq ptr %0, null
  br i1 %2, label %13, label %3

3:                                                ; preds = %1
  %4 = getelementptr inbounds nuw i8, ptr %0, i64 64
  %5 = load ptr, ptr %4, align 8, !tbaa !29
  %.not = icmp eq ptr %5, null
  br i1 %.not, label %12, label %6

6:                                                ; preds = %3
  %7 = load ptr, ptr %0, align 8, !tbaa !33
  %8 = getelementptr inbounds nuw i8, ptr %7, i64 40
  %9 = load ptr, ptr %8, align 8, !tbaa !22
  %10 = getelementptr inbounds nuw i8, ptr %9, i64 40
  %11 = load ptr, ptr %10, align 8, !tbaa !34
  tail call void %11(ptr noundef nonnull %5)
  br label %12

12:                                               ; preds = %6, %3
  tail call void @mbedtls_platform_zeroize(ptr noundef nonnull %0, i64 noundef 72)
  br label %13

13:                                               ; preds = %1, %12
  ret void
}